target datalayout = "e-m:e-p270:32:32-p271:32:32-p272:64:64-i64:64-i128:128-f80:128-n8:16:32:64-S128"
target triple = "x86_64-pc-linux-gnu"

; Function Attrs: nounwind uwtable
define internal i32 @divide_using_multiply_shift(i32 noundef %0, i32 noundef %1, i32 noundef %2, i32 noundef %3) #0 {
  %5 = alloca i32, align 4
  %6 = alloca i32, align 4
  %7 = alloca i32, align 4
  %8 = alloca i32, align 4
  %9 = alloca i32, align 4
  store i32 %0, ptr %5, align 4
  store i32 %1, ptr %6, align 4
  store i32 %2, ptr %7, align 4
  store i32 %3, ptr %8, align 4
  %10 = load i32, ptr %5, align 4
  %11 = load i32, ptr %6, align 4
  %12 = ashr i32 %10, %11
  store i32 %12, ptr %9, align 4
  %13 = load i32, ptr %9, align 4
  %14 = load i32, ptr %7, align 4
  %15 = mul nsw i32 %13, %14
  %16 = load i32, ptr %8, align 4
  %17 = ashr i32 %15, %16
  ret i32 %17
}

; Function Attrs: nounwind uwtable
define internal void @dc_predictor_rect(ptr noundef %0, i64 noundef %1, i32 noundef %2, i32 noundef %3, ptr noundef %4, ptr noundef %5, i32 noundef %6, i32 noundef %7) #0 {
  %9 = alloca ptr, align 8
  %10 = alloca i64, align 8
  %11 = alloca i32, align 4
  %12 = alloca i32, align 4
  %13 = alloca ptr, align 8
  %14 = alloca ptr, align 8
  %15 = alloca i32, align 4
  %16 = alloca i32, align 4
  %17 = alloca i32, align 4
  %18 = alloca i32, align 4
  %19 = alloca i32, align 4
  %20 = alloca i32, align 4
  %21 = alloca i32, align 4
  store ptr %0, ptr %9, align 8
  store i64 %1, ptr %10, align 8
  store i32 %2, ptr %11, align 4
  store i32 %3, ptr %12, align 4
  store ptr %4, ptr %13, align 8
  store ptr %5, ptr %14, align 8
  store i32 %6, ptr %15, align 4
  store i32 %7, ptr %16, align 4
  store i32 0, ptr %17, align 4
  store i32 0, ptr %18, align 4
  br label %22

22:                                               ; preds = %35, %8
  %23 = load i32, ptr %18, align 4
  %24 = load i32, ptr %11, align 4
  %25 = icmp slt i32 %23, %24
  br i1 %25, label %26, label %38

26:                                               ; preds = %22
  %27 = load ptr, ptr %13, align 8
  %28 = load i32, ptr %18, align 4
  %29 = sext i32 %28 to i64
  %30 = getelementptr inbounds i8, ptr %27, i64 %29
  %31 = load i8, ptr %30, align 1
  %32 = zext i8 %31 to i32
  %33 = load i32, ptr %17, align 4
  %34 = add nsw i32 %33, %32
  store i32 %34, ptr %17, align 4
  br label %35

35:                                               ; preds = %26
  %36 = load i32, ptr %18, align 4
  %37 = add nsw i32 %36, 1
  store i32 %37, ptr %18, align 4
  br label %22, !llvm.loop !4

38:                                               ; preds = %22
  store i32 0, ptr %19, align 4
  br label %39

39:                                               ; preds = %52, %38
  %40 = load i32, ptr %19, align 4
  %41 = load i32, ptr %12, align 4
  %42 = icmp slt i32 %40, %41
  br i1 %42, label %43, label %55

43:                                               ; preds = %39
  %44 = load ptr, ptr %14, align 8
  %45 = load i32, ptr %19, align 4
  %46 = sext i32 %45 to i64
  %47 = getelementptr inbounds i8, ptr %44, i64 %46
  %48 = load i8, ptr %47, align 1
  %49 = zext i8 %48 to i32
  %50 = load i32, ptr %17, align 4
  %51 = add nsw i32 %50, %49
  store i32 %51, ptr %17, align 4
  br label %52

52:                                               ; preds = %43
  %53 = load i32, ptr %19, align 4
  %54 = add nsw i32 %53, 1
  store i32 %54, ptr %19, align 4
  br label %39, !llvm.loop !6

55:                                               ; preds = %39
  %56 = load i32, ptr %17, align 4
  %57 = load i32, ptr %11, align 4
  %58 = load i32, ptr %12, align 4
  %59 = add nsw i32 %57, %58
  %60 = ashr i32 %59, 1
  %61 = add nsw i32 %56, %60
  %62 = load i32, ptr %15, align 4
  %63 = load i32, ptr %16, align 4
  %64 = call i32 @divide_using_multiply_shift(i32 noundef %61, i32 noundef %62, i32 noundef %63, i32 noundef 16)
  store i32 %64, ptr %20, align 4
  store i32 0, ptr %21, align 4
  br label %65

65:                                               ; preds = %78, %55
  %66 = load i32, ptr %21, align 4
  %67 = load i32, ptr %12, align 4
  %68 = icmp slt i32 %66, %67
  br i1 %68, label %69, label %81

69:                                               ; preds = %65
  %70 = load ptr, ptr %9, align 8
  %71 = load i32, ptr %20, align 4
  %72 = trunc i32 %71 to i8
  %73 = load i32, ptr %11, align 4
  %74 = sext i32 %73 to i64
  call void @llvm.memset.p0.i64(ptr align 1 %70, i8 %72, i64 %74, i1 false)
  %75 = load i64, ptr %10, align 8
  %76 = load ptr, ptr %9, align 8
  %77 = getelementptr inbounds i8, ptr %76, i64 %75
  store ptr %77, ptr %9, align 8
  br label %78

78:                                               ; preds = %69
  %79 = load i32, ptr %21, align 4
  %80 = add nsw i32 %79, 1
  store i32 %80, ptr %21, align 4
  br label %65, !llvm.loop !7

81:                                               ; preds = %65
  ret void
}

; Function Attrs: nounwind uwtable
define hidden void @aom_dc_predictor_4x8_c(ptr noundef %0, i64 noundef %1, ptr noundef %2, ptr noundef %3) #0 {
  %5 = alloca ptr, align 8
  %6 = alloca i64, align 8
  %7 = alloca ptr, align 8
  %8 = alloca ptr, align 8
  store ptr %0, ptr %5, align 8
  store i64 %1, ptr %6, align 8
  store ptr %2, ptr %7, align 8
  store ptr %3, ptr %8, align 8
  %9 = load ptr, ptr %5, align 8
  %10 = load i64, ptr %6, align 8
  %11 = load ptr, ptr %7, align 8
  %12 = load ptr, ptr %8, align 8
  call void @dc_predictor_rect(ptr noundef %9, i64 noundef %10, i32 noundef 4, i32 noundef 8, ptr noundef %11, ptr noundef %12, i32 noundef 2, i32 noundef 21846)
  ret void
}